; Function Attrs: mustprogress nofree norecurse nosync nounwind willreturn memory(argmem: write) uwtable
define hidden void @_ZN8reslimitC2Ev(ptr noundef nonnull writeonly align 8 captures(none) dereferenceable(40) initializes((0, 5), (8, 40)) %0) unnamed_addr #5 align 2 {
  store i32 0, ptr %0, align 8, !tbaa !8
  %2 = getelementptr inbounds nuw i8, ptr %0, i64 4
  store i8 0, ptr %2, align 4, !tbaa !11
  %3 = getelementptr inbounds nuw i8, ptr %0, i64 8
  store i64 0, ptr %3, align 8, !tbaa !23
  %4 = getelementptr inbounds nuw i8, ptr %0, i64 16
  store i64 -1, ptr %4, align 8, !tbaa !24
  %5 = getelementptr inbounds nuw i8, ptr %0, i64 24
  tail call void @llvm.memset.p0.i64(ptr noundef nonnull align 8 dereferenceable(16) %5, i8 0, i64 16, i1 false)
  ret void
}